target datalayout = "e-m:e-p270:32:32-p271:32:32-p272:64:64-i64:64-i128:128-f80:128-n8:16:32:64-S128"
target triple = "x86_64-pc-linux-gnu"

; Function Attrs: nounwind uwtable
define ptr @newDenseMat(i64 noundef %0, i64 noundef %1) #0 {
  %3 = alloca ptr, align 8
  %4 = alloca i64, align 8
  %5 = alloca i64, align 8
  %6 = alloca i64, align 8
  %7 = alloca ptr, align 8
  %8 = alloca i32, align 4
  store i64 %0, ptr %4, align 8, !tbaa !3
  store i64 %1, ptr %5, align 8, !tbaa !3
  call void @llvm.lifetime.start.p0(i64 8, ptr %6) #5
  call void @llvm.lifetime.start.p0(i64 8, ptr %7) #5
  %9 = load i64, ptr %5, align 8, !tbaa !3
  %10 = icmp sle i64 %9, 0
  br i1 %10, label %14, label %11

11:                                               ; preds = %2
  %12 = load i64, ptr %4, align 8, !tbaa !3
  %13 = icmp sle i64 %12, 0
  br i1 %13, label %14, label %15

14:                                               ; preds = %11, %2
  store ptr null, ptr %3, align 8
  store i32 1, ptr %8, align 4
  br label %59

15:                                               ; preds = %11
  store ptr null, ptr %7, align 8, !tbaa !24
  %16 = load i64, ptr %5, align 8, !tbaa !3
  %17 = mul i64 %16, 8
  %18 = call noalias ptr @malloc(i64 noundef %17) #6
  store ptr %18, ptr %7, align 8, !tbaa !24
  %19 = load ptr, ptr %7, align 8, !tbaa !24
  %20 = icmp eq ptr %19, null
  br i1 %20, label %21, label %22

21:                                               ; preds = %15
  store ptr null, ptr %3, align 8
  store i32 1, ptr %8, align 4
  br label %59

22:                                               ; preds = %15
  %23 = load ptr, ptr %7, align 8, !tbaa !24
  %24 = getelementptr inbounds ptr, ptr %23, i64 0
  store ptr null, ptr %24, align 8, !tbaa !16
  %25 = load i64, ptr %4, align 8, !tbaa !3
  %26 = load i64, ptr %5, align 8, !tbaa !3
  %27 = mul nsw i64 %25, %26
  %28 = mul i64 %27, 8
  %29 = call noalias ptr @malloc(i64 noundef %28) #6
  %30 = load ptr, ptr %7, align 8, !tbaa !24
  %31 = getelementptr inbounds ptr, ptr %30, i64 0
  store ptr %29, ptr %31, align 8, !tbaa !16
  %32 = load ptr, ptr %7, align 8, !tbaa !24
  %33 = getelementptr inbounds ptr, ptr %32, i64 0
  %34 = load ptr, ptr %33, align 8, !tbaa !16
  %35 = icmp eq ptr %34, null
  br i1 %35, label %36, label %38

36:                                               ; preds = %22
  %37 = load ptr, ptr %7, align 8, !tbaa !24
  call void @free(ptr noundef %37) #5
  store ptr null, ptr %7, align 8, !tbaa !24
  store ptr null, ptr %3, align 8
  store i32 1, ptr %8, align 4
  br label %59

38:                                               ; preds = %22
  store i64 1, ptr %6, align 8, !tbaa !3
  br label %39

39:                                               ; preds = %54, %38
  %40 = load i64, ptr %6, align 8, !tbaa !3
  %41 = load i64, ptr %5, align 8, !tbaa !3
  %42 = icmp slt i64 %40, %41
  br i1 %42, label %43, label %57

43:                                               ; preds = %39
  %44 = load ptr, ptr %7, align 8, !tbaa !24
  %45 = getelementptr inbounds ptr, ptr %44, i64 0
  %46 = load ptr, ptr %45, align 8, !tbaa !16
  %47 = load i64, ptr %6, align 8, !tbaa !3
  %48 = load i64, ptr %4, align 8, !tbaa !3
  %49 = mul nsw i64 %47, %48
  %50 = getelementptr inbounds double, ptr %46, i64 %49
  %51 = load ptr, ptr %7, align 8, !tbaa !24
  %52 = load i64, ptr %6, align 8, !tbaa !3
  %53 = getelementptr inbounds ptr, ptr %51, i64 %52
  store ptr %50, ptr %53, align 8, !tbaa !16
  br label %54

54:                                               ; preds = %43
  %55 = load i64, ptr %6, align 8, !tbaa !3
  %56 = add nsw i64 %55, 1
  store i64 %56, ptr %6, align 8, !tbaa !3
  br label %39, !llvm.loop !25

57:                                               ; preds = %39
  %58 = load ptr, ptr %7, align 8, !tbaa !24
  store ptr %58, ptr %3, align 8
  store i32 1, ptr %8, align 4
  br label %59

59:                                               ; preds = %57, %36, %21, %14
  call void @llvm.lifetime.end.p0(i64 8, ptr %7) #5
  call void @llvm.lifetime.end.p0(i64 8, ptr %6) #5
  %60 = load ptr, ptr %3, align 8
  ret ptr %60
}